target datalayout = "e-m:e-p270:32:32-p271:32:32-p272:64:64-i64:64-i128:128-f80:128-n8:16:32:64-S128"
target triple = "x86_64-pc-linux-gnu"

%struct._sapi_module_struct = type { ptr, ptr, ptr, ptr, ptr, ptr, ptr, ptr, ptr, ptr, ptr, ptr, ptr, ptr, ptr, ptr, ptr, ptr, ptr, ptr, ptr, ptr, ptr, ptr, i32, i32, ptr, ptr, ptr, ptr, ptr, ptr, i32, ptr, ptr, ptr }
%struct._zend_function_entry = type { ptr, ptr, ptr, i32, i32, ptr, ptr }
%struct._zend_compiler_globals = type { %struct._zend_stack, ptr, ptr, i32, ptr, ptr, ptr, ptr, i8, i8, i8, i8, i8, %struct._zend_llist, ptr, i8, i8, i8, i8, ptr, i32, i32, %struct._zend_oparray_context, %struct._zend_file_context, ptr, %struct._zend_array, ptr, i64, i8, i8, i8, ptr, ptr, %struct._zend_stack, ptr, i32, ptr, ptr, i64, i64, ptr, ptr, ptr, ptr, i32, %struct._zend_stack }
%struct._zend_llist = type { ptr, ptr, i64, i64, ptr, i8, ptr }
%struct._zend_oparray_context = type { i32, i32, i32, i32, i32, i32, i32, ptr, ptr, i8 }
%struct._zend_file_context = type { %struct._zend_declarables, ptr, i8, i8, ptr, ptr, ptr, %struct._zend_array }
%struct._zend_declarables = type { i64 }
%struct._zend_array = type { %struct._zend_refcounted_h, %union.anon.0, i32, %union.anon.1, i32, i32, i32, i32, i64, ptr }
%struct._zend_refcounted_h = type { i32, %union.anon }
%union.anon = type { i32 }
%union.anon.0 = type { i32 }
%union.anon.1 = type { ptr }
%struct._zend_stack = type { i32, i32, i32, ptr }
%struct._zend_executor_globals = type { %struct._zval_struct, %struct._zval_struct, [32 x ptr], ptr, ptr, %struct._zend_array, %struct._zend_array, ptr, i32, i32, ptr, ptr, ptr, ptr, ptr, ptr, i64, ptr, ptr, i32, i32, i64, i32, i32, i32, i8, i8, %struct.zend_atomic_bool_s, %struct.zend_atomic_bool_s, ptr, i64, ptr, ptr, %struct._zend_array, %struct._zend_array, i32, i8, %struct._zval_struct, %struct._zval_struct, %struct._zend_stack, %struct._zend_stack, %struct._zend_stack, ptr, i32, i32, i64, ptr, ptr, ptr, %struct._zend_objects_store, ptr, ptr, ptr, [3 x %struct._zend_op], ptr, i8, i8, i64, i32, i32, ptr, [16 x %struct._HashTableIterator], ptr, %union._zend_function, %struct._zend_op, %struct._zend_array, i64, %struct.zend_get_gc_buffer, ptr, ptr, ptr, i64, i8, i32, ptr, ptr, i64, %struct._zend_call_stack, i64, i64, [6 x ptr] }
%struct.zend_atomic_bool_s = type { i8 }
%struct._zval_struct = type { %union._zend_value, %union.anon.3, %union.anon.6 }
%union._zend_value = type { i64 }
%union.anon.3 = type { i32 }
%union.anon.6 = type { i32 }
%struct._zend_objects_store = type { ptr, i32, i32, i32 }
%struct._HashTableIterator = type { ptr, i32, i32 }
%union._zend_function = type { %struct._zend_op_array }
%struct._zend_op_array = type { i8, [3 x i8], i32, ptr, ptr, ptr, i32, i32, ptr, ptr, ptr, ptr, i32, i32, i32, i32, ptr, ptr, ptr, ptr, ptr, i32, i32, ptr, ptr, ptr, i32, i32, i32, i32, ptr, ptr, [6 x ptr] }
%struct._zend_op = type { ptr, %union._znode_op, %union._znode_op, %union._znode_op, i32, i32, i8, i8, i8, i8 }
%union._znode_op = type { i32 }
%struct.zend_get_gc_buffer = type { ptr, ptr, ptr }
%struct._zend_call_stack = type { ptr, i64 }
%struct.php_ini_builder = type { ptr, i64 }
%struct.__jmp_buf_tag = type { [8 x i64], i32, %struct.__sigset_t }
%struct.__sigset_t = type { [16 x i64] }

@HARDCODED_INI = hidden constant [111 x i8] c"html_errors=0\0Aregister_argc_argv=1\0Aimplicit_flush=1\0Aoutput_buffering=0\0Amax_execution_time=0\0Amax_input_time=-1\0A\00", align 16
@cli_server_sapi_module = external global %struct._sapi_module_struct, align 8
@server_additional_functions = external constant [0 x %struct._zend_function_entry], align 8
@compiler_globals = external global %struct._zend_compiler_globals, align 8
@executor_globals = external global %struct._zend_executor_globals, align 8
@.str.52 = private unnamed_addr constant [4 x i8] c"php\00", align 1

; Function Attrs: nounwind uwtable
define internal void @php_ini_builder_deinit(ptr noundef %0) #0 {
  %2 = alloca ptr, align 8
  store ptr %0, ptr %2, align 8
  %3 = load ptr, ptr %2, align 8
  %4 = getelementptr inbounds %struct.php_ini_builder, ptr %3, i32 0, i32 0
  %5 = load ptr, ptr %4, align 8
  call void @free(ptr noundef %5) #13
  ret void
}

; Function Attrs: nounwind uwtable
define internal ptr @php_ini_builder_finish(ptr noundef %0) #0 {
  %2 = alloca ptr, align 8
  store ptr %0, ptr %2, align 8
  %3 = load ptr, ptr %2, align 8
  %4 = getelementptr inbounds %struct.php_ini_builder, ptr %3, i32 0, i32 0
  %5 = load ptr, ptr %4, align 8
  %6 = icmp ne ptr %5, null
  br i1 %6, label %7, label %15

7:                                                ; preds = %1
  %8 = load ptr, ptr %2, align 8
  %9 = getelementptr inbounds %struct.php_ini_builder, ptr %8, i32 0, i32 0
  %10 = load ptr, ptr %9, align 8
  %11 = load ptr, ptr %2, align 8
  %12 = getelementptr inbounds %struct.php_ini_builder, ptr %11, i32 0, i32 1
  %13 = load i64, ptr %12, align 8
  %14 = getelementptr inbounds i8, ptr %10, i64 %13
  store i8 0, ptr %14, align 1
  br label %15

15:                                               ; preds = %7, %1
  %16 = load ptr, ptr %2, align 8
  %17 = getelementptr inbounds %struct.php_ini_builder, ptr %16, i32 0, i32 0
  %18 = load ptr, ptr %17, align 8
  ret ptr %18
}

; Function Attrs: nounwind uwtable
define internal void @php_cli_usage(ptr noundef %0) #0 {
  %2 = alloca ptr, align 8
  %3 = alloca ptr, align 8
  store ptr %0, ptr %2, align 8
  %4 = load ptr, ptr %2, align 8
  %5 = call ptr @strrchr(ptr noundef %4, i32 noundef 47) #16
  store ptr %5, ptr %3, align 8
  %6 = load ptr, ptr %3, align 8
  %7 = icmp ne ptr %6, null
  br i1 %7, label %8, label %11

8:                                                ; preds = %1
  %9 = load ptr, ptr %3, align 8
  %10 = getelementptr inbounds i8, ptr %9, i32 1
  store ptr %10, ptr %3, align 8
  br label %12

11:                                               ; preds = %1
  store ptr @.str.52, ptr %3, align 8
  br label %12

12:                                               ; preds = %11, %8
  %13 = load ptr, ptr %3, align 8
  %14 = load ptr, ptr %3, align 8
  %15 = load ptr, ptr %3, align 8
  %16 = load ptr, ptr %3, align 8
  %17 = load ptr, ptr %3, align 8
  %18 = load ptr, ptr %3, align 8
  %19 = load ptr, ptr %3, align 8
  %20 = call i32 (ptr, ...) @printf(ptr noundef @.str.53, ptr noundef %13, ptr noundef %14, ptr noundef %15, ptr noundef %16, ptr noundef %17, ptr noundef %18, ptr noundef %19)
  ret void
}

; Function Attrs: nounwind uwtable
define internal void @php_ini_builder_init(ptr noundef %0) #0 {
  %2 = alloca ptr, align 8
  store ptr %0, ptr %2, align 8
  %3 = load ptr, ptr %2, align 8
  %4 = getelementptr inbounds %struct.php_ini_builder, ptr %3, i32 0, i32 0
  store ptr null, ptr %4, align 8
  %5 = load ptr, ptr %2, align 8
  %6 = getelementptr inbounds %struct.php_ini_builder, ptr %5, i32 0, i32 1
  store i64 0, ptr %6, align 8
  ret void
}

; Function Attrs: nounwind uwtable
define hidden i32 @main(i32 noundef %0, ptr noundef %1) #0 {
  %3 = alloca i32, align 4
  %4 = alloca i32, align 4
  %5 = alloca ptr, align 8
  %6 = alloca i32, align 4
  %7 = alloca i32, align 4
  %8 = alloca i32, align 4
  %9 = alloca i32, align 4
  %10 = alloca ptr, align 8
  %11 = alloca i32, align 4
  %12 = alloca i32, align 4
  %13 = alloca ptr, align 8
  %14 = alloca %struct.php_ini_builder, align 8
  %15 = alloca i32, align 4
  %16 = alloca ptr, align 8
  %17 = alloca ptr, align 8
  %18 = alloca [1 x %struct.__jmp_buf_tag], align 16
  store i32 0, ptr %3, align 4
  store i32 %0, ptr %4, align 4
  store ptr %1, ptr %5, align 8
  store i32 0, ptr %7, align 4
  store i32 0, ptr %8, align 4
  store i32 0, ptr %9, align 4
  store ptr null, ptr %10, align 8
  store i32 1, ptr %11, align 4
  store i32 0, ptr %12, align 4
  store ptr null, ptr %13, align 8
  store i32 0, ptr %15, align 4
  store ptr @cli_sapi_module, ptr %16, align 8
  %19 = load i32, ptr %4, align 4
  %20 = load ptr, ptr %5, align 8
  %21 = call ptr @save_ps_args(i32 noundef %19, ptr noundef %20)
  store ptr %21, ptr %5, align 8
  store ptr @additional_functions, ptr getelementptr inbounds (%struct._sapi_module_struct, ptr @cli_sapi_module, i32 0, i32 34), align 8
  %22 = call ptr @signal(i32 noundef 13, ptr noundef inttoptr (i64 1 to ptr)) #13
  call void @zend_signal_startup()
  call void @php_ini_builder_init(ptr noundef %14)
  br label %23

23:                                               ; preds = %52, %2
  %24 = load i32, ptr %4, align 4
  %25 = load ptr, ptr %5, align 8
  %26 = call i32 @php_getopt(i32 noundef %24, ptr noundef %25, ptr noundef @OPTIONS, ptr noundef %10, ptr noundef %11, i32 noundef 1, i32 noundef 2)
  store i32 %26, ptr %6, align 4
  %27 = icmp ne i32 %26, -1
  br i1 %27, label %28, label %53

28:                                               ; preds = %23
  %29 = load i32, ptr %6, align 4
  switch i32 %29, label %52 [
    i32 99, label %30
    i32 110, label %38
    i32 100, label %39
    i32 83, label %41
    i32 104, label %42
    i32 63, label %42
    i32 -2, label %46
    i32 105, label %50
    i32 118, label %50
    i32 109, label %50
    i32 101, label %51
  ]

30:                                               ; preds = %28
  %31 = load ptr, ptr %13, align 8
  %32 = icmp ne ptr %31, null
  br i1 %32, label %33, label %35

33:                                               ; preds = %30
  %34 = load ptr, ptr %13, align 8
  call void @free(ptr noundef %34) #13
  br label %35

35:                                               ; preds = %33, %30
  %36 = load ptr, ptr %10, align 8
  %37 = call noalias ptr @strdup(ptr noundef %36) #13
  store ptr %37, ptr %13, align 8
  br label %52

38:                                               ; preds = %28
  store i32 1, ptr %15, align 4
  br label %52

39:                                               ; preds = %28
  %40 = load ptr, ptr %10, align 8
  call void @php_ini_builder_define(ptr noundef %14, ptr noundef %40)
  br label %52

41:                                               ; preds = %28
  store ptr @cli_server_sapi_module, ptr %16, align 8
  store ptr @server_additional_functions, ptr getelementptr inbounds (%struct._sapi_module_struct, ptr @cli_server_sapi_module, i32 0, i32 34), align 8
  br label %52

42:                                               ; preds = %28, %28
  %43 = load ptr, ptr %5, align 8
  %44 = getelementptr inbounds ptr, ptr %43, i64 0
  %45 = load ptr, ptr %44, align 8
  call void @php_cli_usage(ptr noundef %45)
  br label %112

46:                                               ; preds = %28
  %47 = load ptr, ptr %5, align 8
  %48 = getelementptr inbounds ptr, ptr %47, i64 0
  %49 = load ptr, ptr %48, align 8
  call void @php_cli_usage(ptr noundef %49)
  store i32 1, ptr %7, align 4
  br label %112

50:                                               ; preds = %28, %28, %28
  store ptr @cli_sapi_module, ptr %16, align 8
  br label %54

51:                                               ; preds = %28
  store i32 1, ptr %12, align 4
  br label %52

52:                                               ; preds = %51, %41, %39, %38, %35, %28
  br label %23

53:                                               ; preds = %23
  br label %54

54:                                               ; preds = %53, %50
  %55 = load ptr, ptr %16, align 8
  %56 = getelementptr inbounds %struct._sapi_module_struct, ptr %55, i32 0, i32 31
  store ptr @sapi_cli_ini_defaults, ptr %56, align 8
  %57 = load ptr, ptr %13, align 8
  %58 = load ptr, ptr %16, align 8
  %59 = getelementptr inbounds %struct._sapi_module_struct, ptr %58, i32 0, i32 20
  store ptr %57, ptr %59, align 8
  %60 = load ptr, ptr %16, align 8
  %61 = getelementptr inbounds %struct._sapi_module_struct, ptr %60, i32 0, i32 32
  store i32 1, ptr %61, align 8
  %62 = load ptr, ptr %16, align 8
  %63 = getelementptr inbounds %struct._sapi_module_struct, ptr %62, i32 0, i32 25
  store i32 1, ptr %63, align 4
  %64 = load ptr, ptr %16, align 8
  call void @sapi_startup(ptr noundef %64)
  store i32 1, ptr %9, align 4
  %65 = load i32, ptr %15, align 4
  %66 = load ptr, ptr %16, align 8
  %67 = getelementptr inbounds %struct._sapi_module_struct, ptr %66, i32 0, i32 24
  store i32 %65, ptr %67, align 8
  %68 = load ptr, ptr %5, align 8
  %69 = getelementptr inbounds ptr, ptr %68, i64 0
  %70 = load ptr, ptr %69, align 8
  %71 = load ptr, ptr %16, align 8
  %72 = getelementptr inbounds %struct._sapi_module_struct, ptr %71, i32 0, i32 23
  store ptr %70, ptr %72, align 8
  %73 = load ptr, ptr %16, align 8
  %74 = icmp eq ptr %73, @cli_sapi_module
  br i1 %74, label %75, label %76

75:                                               ; preds = %54
  call void @php_ini_builder_prepend(ptr noundef %14, ptr noundef @HARDCODED_INI, i64 noundef 110)
  br label %76

76:                                               ; preds = %75, %54
  %77 = call ptr @php_ini_builder_finish(ptr noundef %14)
  %78 = load ptr, ptr %16, align 8
  %79 = getelementptr inbounds %struct._sapi_module_struct, ptr %78, i32 0, i32 33
  store ptr %77, ptr %79, align 8
  %80 = load ptr, ptr %16, align 8
  %81 = getelementptr inbounds %struct._sapi_module_struct, ptr %80, i32 0, i32 2
  %82 = load ptr, ptr %81, align 8
  %83 = load ptr, ptr %16, align 8
  %84 = call i32 %82(ptr noundef %83)
  %85 = icmp eq i32 %84, -1
  br i1 %85, label %86, label %87

86:                                               ; preds = %76
  store i32 1, ptr %7, align 4
  br label %112

87:                                               ; preds = %76
  store i32 1, ptr %8, align 4
  %88 = load i32, ptr %12, align 4
  %89 = icmp ne i32 %88, 0
  br i1 %89, label %90, label %93

90:                                               ; preds = %87
  %91 = load i32, ptr getelementptr inbounds (%struct._zend_compiler_globals, ptr @compiler_globals, i32 0, i32 21), align 4
  %92 = or i32 %91, 3
  store i32 %92, ptr getelementptr inbounds (%struct._zend_compiler_globals, ptr @compiler_globals, i32 0, i32 21), align 4
  br label %93

93:                                               ; preds = %90, %87
  store ptr null, ptr getelementptr inbounds (%struct._zend_executor_globals, ptr @executor_globals, i32 0, i32 7), align 8
  %94 = load ptr, ptr getelementptr inbounds (%struct._zend_executor_globals, ptr @executor_globals, i32 0, i32 7), align 8
  store ptr %94, ptr %17, align 8
  store ptr %18, ptr getelementptr inbounds (%struct._zend_executor_globals, ptr @executor_globals, i32 0, i32 7), align 8
  %95 = getelementptr inbounds [1 x %struct.__jmp_buf_tag], ptr %18, i64 0, i64 0
  %96 = call i32 @__sigsetjmp(ptr noundef %95, i32 noundef 0) #14
  %97 = icmp eq i32 %96, 0
  br i1 %97, label %98, label %110

98:                                               ; preds = %93
  %99 = load ptr, ptr %16, align 8
  %100 = icmp eq ptr %99, @cli_sapi_module
  br i1 %100, label %101, label %105

101:                                              ; preds = %98
  %102 = load i32, ptr %4, align 4
  %103 = load ptr, ptr %5, align 8
  %104 = call i32 @do_cli(i32 noundef %102, ptr noundef %103)
  store i32 %104, ptr %7, align 4
  br label %109

105:                                              ; preds = %98
  %106 = load i32, ptr %4, align 4
  %107 = load ptr, ptr %5, align 8
  %108 = call i32 @do_cli_server(i32 noundef %106, ptr noundef %107)
  store i32 %108, ptr %7, align 4
  br label %109

109:                                              ; preds = %105, %101
  br label %110

110:                                              ; preds = %109, %93
  %111 = load ptr, ptr %17, align 8
  store ptr %111, ptr getelementptr inbounds (%struct._zend_executor_globals, ptr @executor_globals, i32 0, i32 7), align 8
  br label %112

112:                                              ; preds = %110, %86, %46, %42
  %113 = load ptr, ptr %13, align 8
  %114 = icmp ne ptr %113, null
  br i1 %114, label %115, label %117

115:                                              ; preds = %112
  %116 = load ptr, ptr %13, align 8
  call void @free(ptr noundef %116) #13
  br label %117

117:                                              ; preds = %115, %112
  call void @php_ini_builder_deinit(ptr noundef %14)
  %118 = load i32, ptr %8, align 4
  %119 = icmp ne i32 %118, 0
  br i1 %119, label %120, label %121

120:                                              ; preds = %117
  call void @php_module_shutdown()
  br label %121

121:                                              ; preds = %120, %117
  %122 = load i32, ptr %9, align 4
  %123 = icmp ne i32 %122, 0
  br i1 %123, label %124, label %125

124:                                              ; preds = %121
  call void @sapi_shutdown()
  br label %125

125:                                              ; preds = %124, %121
  %126 = load ptr, ptr %5, align 8
  call void @cleanup_ps_args(ptr noundef %126)
  %127 = load i32, ptr %7, align 4
  call void @exit(i32 noundef %127) #15
  unreachable
}