; Function Attrs: noreturn nounwind uwtable
define hidden noundef i32 @main(i32 noundef %0, ptr noundef %1) local_unnamed_addr #4 {
  %3 = alloca ptr, align 8
  %4 = alloca i32, align 4
  %5 = alloca %struct.php_ini_builder, align 8
  %6 = alloca [1 x %struct.__jmp_buf_tag], align 16
  store ptr null, ptr %3, align 8
  store i32 1, ptr %4, align 4
  %7 = call ptr @save_ps_args(i32 noundef %0, ptr noundef %1) #23
  store ptr @additional_functions, ptr getelementptr inbounds (%struct._sapi_module_struct, ptr @cli_sapi_module, i64 0, i32 34), align 8
  %8 = call ptr @signal(i32 noundef 13, ptr noundef nonnull inttoptr (i64 1 to ptr)) #23
  call void @zend_signal_startup() #23
  call void @llvm.memset.p0.i64(ptr noundef nonnull align 8 dereferenceable(16) %5, i8 0, i64 16, i1 false)
  br label %.outer

.outer:                                           ; preds = %9, %2
  %.not46 = phi i1 [ true, %2 ], [ false, %9 ]
  %.037.ph = phi ptr [ null, %2 ], [ %.037.ph121, %9 ]
  %.035.ph = phi i32 [ 0, %2 ], [ %.035.ph125, %9 ]
  %.0.ph = phi ptr [ @cli_sapi_module, %2 ], [ %.0.ph128, %9 ]
  br label %.outer120

.outer120:                                        ; preds = %.outer, %13
  %.037.ph121 = phi ptr [ %.037.ph, %.outer ], [ %15, %13 ]
  %.035.ph122 = phi i32 [ %.035.ph, %.outer ], [ %.035.ph125, %13 ]
  %.0.ph123 = phi ptr [ %.0.ph, %.outer ], [ %.0.ph128, %13 ]
  br label %.outer124

.outer124:                                        ; preds = %9, %.outer120
  %.035.ph125 = phi i32 [ %.035.ph122, %.outer120 ], [ 1, %9 ]
  %.0.ph126 = phi ptr [ %.0.ph123, %.outer120 ], [ %.0.ph128, %9 ]
  br label %.outer127

.outer127:                                        ; preds = %.outer124, %18
  %.0.ph128 = phi ptr [ %.0.ph126, %.outer124 ], [ @cli_server_sapi_module, %18 ]
  br label %9

9:                                                ; preds = %.backedge, %.outer127
  %10 = call i32 @php_getopt(i32 noundef %0, ptr noundef %7, ptr noundef nonnull @OPTIONS, ptr noundef nonnull %3, ptr noundef nonnull %4, i32 noundef 1, i32 noundef 2) #23
  switch i32 %10, label %.backedge [
    i32 -1, label %.loopexit.loopexit
    i32 99, label %11
    i32 110, label %.outer124
    i32 100, label %16
    i32 83, label %18
    i32 104, label %19
    i32 63, label %19
    i32 -2, label %24
    i32 105, label %.loopexit
    i32 118, label %.loopexit
    i32 109, label %.loopexit
    i32 101, label %.outer
  ]

.backedge:                                        ; preds = %9, %16
  br label %9

11:                                               ; preds = %9
  %.not50 = icmp eq ptr %.037.ph121, null
  br i1 %.not50, label %13, label %12

12:                                               ; preds = %11
  call void @free(ptr noundef nonnull %.037.ph121) #23
  br label %13

13:                                               ; preds = %12, %11
  %14 = load ptr, ptr %3, align 8
  %15 = call noalias ptr @strdup(ptr noundef %14) #23
  br label %.outer120

16:                                               ; preds = %9
  %17 = load ptr, ptr %3, align 8
  call void @php_ini_builder_define(ptr noundef nonnull %5, ptr noundef %17) #23
  br label %.backedge

18:                                               ; preds = %9
  store ptr @server_additional_functions, ptr getelementptr inbounds (%struct._sapi_module_struct, ptr @cli_server_sapi_module, i64 0, i32 34), align 8
  br label %.outer127

19:                                               ; preds = %9, %9
  %20 = load ptr, ptr %7, align 8
  %21 = call ptr @strrchr(ptr noundef nonnull dereferenceable(1) %20, i32 noundef 47) #25
  %.not.i = icmp eq ptr %21, null
  %22 = getelementptr inbounds i8, ptr %21, i64 1
  %.0.i = select i1 %.not.i, ptr @.str.52, ptr %22
  %23 = call i32 (ptr, ...) @printf(ptr noundef nonnull dereferenceable(1) @.str.53, ptr noundef nonnull %.0.i, ptr noundef nonnull %.0.i, ptr noundef nonnull %.0.i, ptr noundef nonnull %.0.i, ptr noundef nonnull %.0.i, ptr noundef nonnull %.0.i, ptr noundef nonnull %.0.i)
  br label %63

24:                                               ; preds = %9
  %25 = load ptr, ptr %7, align 8
  %26 = call ptr @strrchr(ptr noundef nonnull dereferenceable(1) %25, i32 noundef 47) #25
  %.not.i51 = icmp eq ptr %26, null
  %27 = getelementptr inbounds i8, ptr %26, i64 1
  %.0.i52 = select i1 %.not.i51, ptr @.str.52, ptr %27
  %28 = call i32 (ptr, ...) @printf(ptr noundef nonnull dereferenceable(1) @.str.53, ptr noundef nonnull %.0.i52, ptr noundef nonnull %.0.i52, ptr noundef nonnull %.0.i52, ptr noundef nonnull %.0.i52, ptr noundef nonnull %.0.i52, ptr noundef nonnull %.0.i52, ptr noundef nonnull %.0.i52)
  br label %63

.loopexit.loopexit:                               ; preds = %9
  br label %.loopexit

.loopexit:                                        ; preds = %9, %9, %9, %.loopexit.loopexit
  %.2 = phi ptr [ %.0.ph128, %.loopexit.loopexit ], [ @cli_sapi_module, %9 ], [ @cli_sapi_module, %9 ], [ @cli_sapi_module, %9 ]
  %29 = getelementptr inbounds i8, ptr %.2, i64 240
  store ptr @sapi_cli_ini_defaults, ptr %29, align 8
  %30 = getelementptr inbounds i8, ptr %.2, i64 160
  store ptr %.037.ph121, ptr %30, align 8
  %31 = getelementptr inbounds i8, ptr %.2, i64 248
  store i32 1, ptr %31, align 8
  %32 = getelementptr inbounds i8, ptr %.2, i64 196
  store i32 1, ptr %32, align 4
  call void @sapi_startup(ptr noundef nonnull %.2) #23
  %33 = getelementptr inbounds i8, ptr %.2, i64 192
  store i32 %.035.ph125, ptr %33, align 8
  %34 = load ptr, ptr %7, align 8
  %35 = getelementptr inbounds i8, ptr %.2, i64 184
  store ptr %34, ptr %35, align 8
  %36 = icmp eq ptr %.2, @cli_sapi_module
  br i1 %36, label %37, label %38

37:                                               ; preds = %.loopexit
  call void @php_ini_builder_prepend(ptr noundef nonnull %5, ptr noundef nonnull @HARDCODED_INI, i64 noundef 110) #23
  br label %38

38:                                               ; preds = %37, %.loopexit
  %39 = load ptr, ptr %5, align 8
  %.not.i53 = icmp eq ptr %39, null
  br i1 %.not.i53, label %php_ini_builder_finish.exit, label %40

40:                                               ; preds = %38
  %41 = getelementptr inbounds i8, ptr %5, i64 8
  %42 = load i64, ptr %41, align 8
  %43 = getelementptr inbounds i8, ptr %39, i64 %42
  store i8 0, ptr %43, align 1
  %.pre.i = load ptr, ptr %5, align 8
  br label %php_ini_builder_finish.exit

php_ini_builder_finish.exit:                      ; preds = %38, %40
  %44 = phi ptr [ %.pre.i, %40 ], [ null, %38 ]
  %45 = getelementptr inbounds i8, ptr %.2, i64 256
  store ptr %44, ptr %45, align 8
  %46 = getelementptr inbounds i8, ptr %.2, i64 16
  %47 = load ptr, ptr %46, align 8
  %48 = call i32 %47(ptr noundef nonnull %.2) #23
  %49 = icmp eq i32 %48, -1
  br i1 %49, label %63, label %50

50:                                               ; preds = %php_ini_builder_finish.exit
  br i1 %.not46, label %54, label %51

51:                                               ; preds = %50
  %52 = load i32, ptr getelementptr inbounds (%struct._zend_compiler_globals, ptr @compiler_globals, i64 0, i32 21), align 4
  %53 = or i32 %52, 3
  store i32 %53, ptr getelementptr inbounds (%struct._zend_compiler_globals, ptr @compiler_globals, i64 0, i32 21), align 4
  br label %54

54:                                               ; preds = %51, %50
  store ptr %6, ptr getelementptr inbounds (%struct._zend_executor_globals, ptr @executor_globals, i64 0, i32 7), align 8
  %55 = call i32 @__sigsetjmp(ptr noundef nonnull %6, i32 noundef 0) #26
  %56 = icmp eq i32 %55, 0
  br i1 %56, label %57, label %62

57:                                               ; preds = %54
  br i1 %36, label %58, label %60

58:                                               ; preds = %57
  %59 = call fastcc i32 @do_cli(i32 noundef %0, ptr noundef nonnull %7)
  br label %62

60:                                               ; preds = %57
  %61 = call i32 @do_cli_server(i32 noundef %0, ptr noundef nonnull %7) #23
  br label %62

62:                                               ; preds = %58, %60, %54
  %.043 = phi i32 [ %59, %58 ], [ %61, %60 ], [ 0, %54 ]
  store ptr null, ptr getelementptr inbounds (%struct._zend_executor_globals, ptr @executor_globals, i64 0, i32 7), align 8
  br label %63

63:                                               ; preds = %php_ini_builder_finish.exit, %62, %24, %19
  %.144 = phi i32 [ %.043, %62 ], [ 1, %24 ], [ 0, %19 ], [ 1, %php_ini_builder_finish.exit ]
  %.not48 = phi i1 [ false, %62 ], [ true, %24 ], [ true, %19 ], [ true, %php_ini_builder_finish.exit ]
  %.not49 = phi i1 [ false, %62 ], [ true, %24 ], [ true, %19 ], [ false, %php_ini_builder_finish.exit ]
  %.not47 = icmp eq ptr %.037.ph121, null
  br i1 %.not47, label %65, label %64

64:                                               ; preds = %63
  call void @free(ptr noundef nonnull %.037.ph121) #23
  br label %65

65:                                               ; preds = %64, %63
  %.val = load ptr, ptr %5, align 8
  call void @free(ptr noundef %.val) #23
  br i1 %.not48, label %67, label %66

66:                                               ; preds = %65
  call void @php_module_shutdown() #23
  br label %67

67:                                               ; preds = %66, %65
  br i1 %.not49, label %69, label %68

68:                                               ; preds = %67
  call void @sapi_shutdown() #23
  br label %69

69:                                               ; preds = %68, %67
  call void @cleanup_ps_args(ptr noundef nonnull %7) #23
  call void @exit(i32 noundef %.144) #27
  unreachable
}